target datalayout = "e-m:e-p270:32:32-p271:32:32-p272:64:64-i64:64-i128:128-f80:128-n8:16:32:64-S128"
target triple = "x86_64-pc-linux-gnu"

%struct.Ivy_Man_t_ = type { ptr, ptr, ptr, ptr, ptr, %struct.Ivy_Obj_t_, [8 x i32], i32, i32, ptr, i32, i32, i32, i32, ptr, i32, ptr, ptr, ptr, i32, ptr, ptr, ptr, i64, i64 }
%struct.Ivy_Obj_t_ = type { i32, i32, i32, i32, ptr, ptr, ptr, ptr, ptr, ptr, ptr, ptr }
%struct.Ivy_FraigMan_t_ = type { ptr, i64, i64, ptr, ptr, i32, ptr, ptr, i32, ptr, ptr, %struct.Ivy_FraigList_t_, %struct.Ivy_FraigList_t_, i32, ptr, i32, ptr, ptr, i32, i32, i32, i32, i32, i32, i32, i32, i32, i32, i32, i32, i32, i64, i64, i64, i64, i64, i64, i64, i64, i64, i64 }
%struct.Ivy_FraigList_t_ = type { ptr, ptr, i32 }
%struct.Ivy_FraigSim_t_ = type { i32, ptr, ptr, ptr, [0 x i32] }
%struct.Vec_Ptr_t_ = type { i32, i32, ptr }

; Function Attrs: inlinehint nounwind uwtable
define internal void @Ivy_InfoXorBit(ptr noundef %0, i32 noundef %1) #4 {
  %3 = alloca ptr, align 8
  %4 = alloca i32, align 4
  store ptr %0, ptr %3, align 8, !tbaa !139
  store i32 %1, ptr %4, align 4, !tbaa !44
  %5 = load i32, ptr %4, align 4, !tbaa !44
  %6 = and i32 %5, 31
  %7 = shl i32 1, %6
  %8 = load ptr, ptr %3, align 8, !tbaa !139
  %9 = load i32, ptr %4, align 4, !tbaa !44
  %10 = ashr i32 %9, 5
  %11 = sext i32 %10 to i64
  %12 = getelementptr inbounds i32, ptr %8, i64 %11
  %13 = load i32, ptr %12, align 4, !tbaa !44
  %14 = xor i32 %13, %7
  store i32 %14, ptr %12, align 4, !tbaa !44
  ret void
}

; Function Attrs: inlinehint nounwind uwtable
define internal ptr @Ivy_ObjSim(ptr noundef %0) #4 {
  %2 = alloca ptr, align 8
  store ptr %0, ptr %2, align 8, !tbaa !72
  %3 = load ptr, ptr %2, align 8, !tbaa !72
  %4 = getelementptr inbounds nuw %struct.Ivy_Obj_t_, ptr %3, i32 0, i32 6
  %5 = load ptr, ptr %4, align 8, !tbaa !126
  ret ptr %5
}

; Function Attrs: inlinehint nounwind uwtable
define internal ptr @Ivy_ManPi(ptr noundef %0, i32 noundef %1) #4 {
  %3 = alloca ptr, align 8
  %4 = alloca i32, align 4
  store ptr %0, ptr %3, align 8, !tbaa !27
  store i32 %1, ptr %4, align 4, !tbaa !44
  %5 = load ptr, ptr %3, align 8, !tbaa !27
  %6 = getelementptr inbounds nuw %struct.Ivy_Man_t_, ptr %5, i32 0, i32 0
  %7 = load ptr, ptr %6, align 8, !tbaa !137
  %8 = load i32, ptr %4, align 4, !tbaa !44
  %9 = call ptr @Vec_PtrEntry(ptr noundef %7, i32 noundef %8)
  ret ptr %9
}

; Function Attrs: inlinehint nounwind uwtable
define internal i32 @Ivy_ManPiNum(ptr noundef %0) #4 {
  %2 = alloca ptr, align 8
  store ptr %0, ptr %2, align 8, !tbaa !27
  %3 = load ptr, ptr %2, align 8, !tbaa !27
  %4 = getelementptr inbounds nuw %struct.Ivy_Man_t_, ptr %3, i32 0, i32 6
  %5 = getelementptr inbounds [8 x i32], ptr %4, i64 0, i64 1
  %6 = load i32, ptr %5, align 4, !tbaa !44
  ret i32 %6
}

; Function Attrs: nounwind uwtable
define void @Ivy_NodeAssignConst(ptr noundef %0, ptr noundef %1, i32 noundef %2) #0 {
  %4 = alloca ptr, align 8
  %5 = alloca ptr, align 8
  %6 = alloca i32, align 4
  %7 = alloca ptr, align 8
  %8 = alloca i32, align 4
  store ptr %0, ptr %4, align 8, !tbaa !60
  store ptr %1, ptr %5, align 8, !tbaa !72
  store i32 %2, ptr %6, align 4, !tbaa !44
  call void @llvm.lifetime.start.p0(i64 8, ptr %7) #12
  call void @llvm.lifetime.start.p0(i64 4, ptr %8) #12
  %9 = load ptr, ptr %5, align 8, !tbaa !72
  %10 = call ptr @Ivy_ObjSim(ptr noundef %9)
  store ptr %10, ptr %7, align 8, !tbaa !102
  store i32 0, ptr %8, align 4, !tbaa !44
  br label %11

11:                                               ; preds = %26, %3
  %12 = load i32, ptr %8, align 4, !tbaa !44
  %13 = load ptr, ptr %4, align 8, !tbaa !60
  %14 = getelementptr inbounds nuw %struct.Ivy_FraigMan_t_, ptr %13, i32 0, i32 5
  %15 = load i32, ptr %14, align 8, !tbaa !100
  %16 = icmp slt i32 %12, %15
  br i1 %16, label %17, label %29

17:                                               ; preds = %11
  %18 = load i32, ptr %6, align 4, !tbaa !44
  %19 = icmp ne i32 %18, 0
  %20 = select i1 %19, i32 -1, i32 0
  %21 = load ptr, ptr %7, align 8, !tbaa !102
  %22 = getelementptr inbounds nuw %struct.Ivy_FraigSim_t_, ptr %21, i32 0, i32 4
  %23 = load i32, ptr %8, align 4, !tbaa !44
  %24 = sext i32 %23 to i64
  %25 = getelementptr inbounds [0 x i32], ptr %22, i64 0, i64 %24
  store i32 %20, ptr %25, align 4, !tbaa !44
  br label %26

26:                                               ; preds = %17
  %27 = load i32, ptr %8, align 4, !tbaa !44
  %28 = add nsw i32 %27, 1
  store i32 %28, ptr %8, align 4, !tbaa !44
  br label %11, !llvm.loop !136

29:                                               ; preds = %11
  call void @llvm.lifetime.end.p0(i64 4, ptr %8) #12
  call void @llvm.lifetime.end.p0(i64 8, ptr %7) #12
  ret void
}

; Function Attrs: inlinehint nounwind uwtable
define internal i32 @Ivy_InfoHasBit(ptr noundef %0, i32 noundef %1) #4 {
  %3 = alloca ptr, align 8
  %4 = alloca i32, align 4
  store ptr %0, ptr %3, align 8, !tbaa !139
  store i32 %1, ptr %4, align 4, !tbaa !44
  %5 = load ptr, ptr %3, align 8, !tbaa !139
  %6 = load i32, ptr %4, align 4, !tbaa !44
  %7 = ashr i32 %6, 5
  %8 = sext i32 %7 to i64
  %9 = getelementptr inbounds i32, ptr %5, i64 %8
  %10 = load i32, ptr %9, align 4, !tbaa !44
  %11 = load i32, ptr %4, align 4, !tbaa !44
  %12 = and i32 %11, 31
  %13 = shl i32 1, %12
  %14 = and i32 %10, %13
  %15 = icmp ugt i32 %14, 0
  %16 = zext i1 %15 to i32
  ret i32 %16
}

; Function Attrs: inlinehint nounwind uwtable
define internal ptr @Vec_PtrEntry(ptr noundef %0, i32 noundef %1) #4 {
  %3 = alloca ptr, align 8
  %4 = alloca i32, align 4
  store ptr %0, ptr %3, align 8, !tbaa !130
  store i32 %1, ptr %4, align 4, !tbaa !44
  %5 = load ptr, ptr %3, align 8, !tbaa !130
  %6 = getelementptr inbounds nuw %struct.Vec_Ptr_t_, ptr %5, i32 0, i32 2
  %7 = load ptr, ptr %6, align 8, !tbaa !133
  %8 = load i32, ptr %4, align 4, !tbaa !44
  %9 = sext i32 %8 to i64
  %10 = getelementptr inbounds ptr, ptr %7, i64 %9
  %11 = load ptr, ptr %10, align 8, !tbaa !22
  ret ptr %11
}

; Function Attrs: inlinehint nounwind uwtable
define internal i32 @Vec_PtrSize(ptr noundef %0) #4 {
  %2 = alloca ptr, align 8
  store ptr %0, ptr %2, align 8, !tbaa !130
  %3 = load ptr, ptr %2, align 8, !tbaa !130
  %4 = getelementptr inbounds nuw %struct.Vec_Ptr_t_, ptr %3, i32 0, i32 1
  %5 = load i32, ptr %4, align 4, !tbaa !131
  ret i32 %5
}

; Function Attrs: nounwind uwtable
define void @Ivy_FraigAssignDist1(ptr noundef %0, ptr noundef %1) #0 {
  %3 = alloca ptr, align 8
  %4 = alloca ptr, align 8
  %5 = alloca ptr, align 8
  %6 = alloca i32, align 4
  %7 = alloca i32, align 4
  store ptr %0, ptr %3, align 8, !tbaa !60
  store ptr %1, ptr %4, align 8, !tbaa !139
  call void @llvm.lifetime.start.p0(i64 8, ptr %5) #12
  call void @llvm.lifetime.start.p0(i64 4, ptr %6) #12
  call void @llvm.lifetime.start.p0(i64 4, ptr %7) #12
  store i32 0, ptr %6, align 4, !tbaa !44
  br label %8

8:                                                ; preds = %33, %2
  %9 = load i32, ptr %6, align 4, !tbaa !44
  %10 = load ptr, ptr %3, align 8, !tbaa !60
  %11 = getelementptr inbounds nuw %struct.Ivy_FraigMan_t_, ptr %10, i32 0, i32 3
  %12 = load ptr, ptr %11, align 8, !tbaa !70
  %13 = getelementptr inbounds nuw %struct.Ivy_Man_t_, ptr %12, i32 0, i32 0
  %14 = load ptr, ptr %13, align 8, !tbaa !137
  %15 = call i32 @Vec_PtrSize(ptr noundef %14)
  %16 = icmp slt i32 %9, %15
  br i1 %16, label %17, label %25

17:                                               ; preds = %8
  %18 = load ptr, ptr %3, align 8, !tbaa !60
  %19 = getelementptr inbounds nuw %struct.Ivy_FraigMan_t_, ptr %18, i32 0, i32 3
  %20 = load ptr, ptr %19, align 8, !tbaa !70
  %21 = getelementptr inbounds nuw %struct.Ivy_Man_t_, ptr %20, i32 0, i32 0
  %22 = load ptr, ptr %21, align 8, !tbaa !137
  %23 = load i32, ptr %6, align 4, !tbaa !44
  %24 = call ptr @Vec_PtrEntry(ptr noundef %22, i32 noundef %23)
  store ptr %24, ptr %5, align 8, !tbaa !72
  br label %25

25:                                               ; preds = %17, %8
  %26 = phi i1 [ false, %8 ], [ true, %17 ]
  br i1 %26, label %27, label %36

27:                                               ; preds = %25
  %28 = load ptr, ptr %3, align 8, !tbaa !60
  %29 = load ptr, ptr %5, align 8, !tbaa !72
  %30 = load ptr, ptr %4, align 8, !tbaa !139
  %31 = load i32, ptr %6, align 4, !tbaa !44
  %32 = call i32 @Ivy_InfoHasBit(ptr noundef %30, i32 noundef %31)
  call void @Ivy_NodeAssignConst(ptr noundef %28, ptr noundef %29, i32 noundef %32)
  br label %33

33:                                               ; preds = %27
  %34 = load i32, ptr %6, align 4, !tbaa !44
  %35 = add nsw i32 %34, 1
  store i32 %35, ptr %6, align 4, !tbaa !44
  br label %8, !llvm.loop !140

36:                                               ; preds = %25
  %37 = load ptr, ptr %3, align 8, !tbaa !60
  %38 = getelementptr inbounds nuw %struct.Ivy_FraigMan_t_, ptr %37, i32 0, i32 3
  %39 = load ptr, ptr %38, align 8, !tbaa !70
  %40 = call i32 @Ivy_ManPiNum(ptr noundef %39)
  %41 = load ptr, ptr %3, align 8, !tbaa !60
  %42 = getelementptr inbounds nuw %struct.Ivy_FraigMan_t_, ptr %41, i32 0, i32 5
  %43 = load i32, ptr %42, align 8, !tbaa !100
  %44 = mul nsw i32 %43, 32
  %45 = sub nsw i32 %44, 1
  %46 = icmp slt i32 %40, %45
  br i1 %46, label %47, label %52

47:                                               ; preds = %36
  %48 = load ptr, ptr %3, align 8, !tbaa !60
  %49 = getelementptr inbounds nuw %struct.Ivy_FraigMan_t_, ptr %48, i32 0, i32 3
  %50 = load ptr, ptr %49, align 8, !tbaa !70
  %51 = call i32 @Ivy_ManPiNum(ptr noundef %50)
  br label %58

52:                                               ; preds = %36
  %53 = load ptr, ptr %3, align 8, !tbaa !60
  %54 = getelementptr inbounds nuw %struct.Ivy_FraigMan_t_, ptr %53, i32 0, i32 5
  %55 = load i32, ptr %54, align 8, !tbaa !100
  %56 = mul nsw i32 %55, 32
  %57 = sub nsw i32 %56, 1
  br label %58

58:                                               ; preds = %52, %47
  %59 = phi i32 [ %51, %47 ], [ %57, %52 ]
  store i32 %59, ptr %7, align 4, !tbaa !44
  store i32 0, ptr %6, align 4, !tbaa !44
  br label %60

60:                                               ; preds = %75, %58
  %61 = load i32, ptr %6, align 4, !tbaa !44
  %62 = load i32, ptr %7, align 4, !tbaa !44
  %63 = icmp slt i32 %61, %62
  br i1 %63, label %64, label %78

64:                                               ; preds = %60
  %65 = load ptr, ptr %3, align 8, !tbaa !60
  %66 = getelementptr inbounds nuw %struct.Ivy_FraigMan_t_, ptr %65, i32 0, i32 3
  %67 = load ptr, ptr %66, align 8, !tbaa !70
  %68 = load i32, ptr %6, align 4, !tbaa !44
  %69 = call ptr @Ivy_ManPi(ptr noundef %67, i32 noundef %68)
  %70 = call ptr @Ivy_ObjSim(ptr noundef %69)
  %71 = getelementptr inbounds nuw %struct.Ivy_FraigSim_t_, ptr %70, i32 0, i32 4
  %72 = getelementptr inbounds [0 x i32], ptr %71, i64 0, i64 0
  %73 = load i32, ptr %6, align 4, !tbaa !44
  %74 = add nsw i32 %73, 1
  call void @Ivy_InfoXorBit(ptr noundef %72, i32 noundef %74)
  br label %75

75:                                               ; preds = %64
  %76 = load i32, ptr %6, align 4, !tbaa !44
  %77 = add nsw i32 %76, 1
  store i32 %77, ptr %6, align 4, !tbaa !44
  br label %60, !llvm.loop !141

78:                                               ; preds = %60
  call void @llvm.lifetime.end.p0(i64 4, ptr %7) #12
  call void @llvm.lifetime.end.p0(i64 4, ptr %6) #12
  call void @llvm.lifetime.end.p0(i64 8, ptr %5) #12
  ret void
}