; Function Attrs: nofree norecurse nosync nounwind memory(readwrite, inaccessiblemem: none) uwtable
define void @Ivy_FraigAssignDist1(ptr noundef readonly captures(none) %0, ptr noundef readonly captures(none) %1) local_unnamed_addr #9 {
  %3 = getelementptr inbounds nuw i8, ptr %0, i64 24
  %4 = load ptr, ptr %3, align 8, !tbaa !86
  %5 = load ptr, ptr %4, align 8, !tbaa !111
  %6 = getelementptr i8, ptr %5, i64 4
  %.val25 = load i32, ptr %6, align 4, !tbaa !47
  %7 = icmp sgt i32 %.val25, 0
  %8 = getelementptr inbounds nuw i8, ptr %0, i64 40
  br i1 %7, label %.lr.ph, label %..critedge_crit_edge

..critedge_crit_edge:                             ; preds = %2
  %.pre = load i32, ptr %8, align 8, !tbaa !96
  br label %.critedge

.lr.ph:                                           ; preds = %2
  %9 = getelementptr i8, ptr %5, i64 8
  %10 = load i32, ptr %8, align 8, !tbaa !96
  %11 = icmp sgt i32 %10, 0
  br i1 %11, label %.lr.ph.split, label %.critedge

.lr.ph.split:                                     ; preds = %.lr.ph, %Ivy_NodeAssignConst.exit
  %.val36 = phi i32 [ %.val, %Ivy_NodeAssignConst.exit ], [ %.val25, %.lr.ph ]
  %12 = phi i32 [ %32, %Ivy_NodeAssignConst.exit ], [ %10, %.lr.ph ]
  %indvars.iv = phi i64 [ %indvars.iv.next, %Ivy_NodeAssignConst.exit ], [ 0, %.lr.ph ]
  %13 = icmp sgt i32 %12, 0
  br i1 %13, label %.lr.ph.i, label %Ivy_NodeAssignConst.exit

.lr.ph.i:                                         ; preds = %.lr.ph.split
  %14 = trunc nuw nsw i64 %indvars.iv to i32
  %15 = lshr i64 %indvars.iv, 5
  %16 = and i64 %15, 134217727
  %17 = getelementptr inbounds nuw i32, ptr %1, i64 %16
  %18 = load i32, ptr %17, align 4, !tbaa !38
  %19 = and i32 %14, 31
  %.val19 = load ptr, ptr %9, align 8, !tbaa !49
  %20 = getelementptr inbounds nuw ptr, ptr %.val19, i64 %indvars.iv
  %21 = load ptr, ptr %20, align 8, !tbaa !51
  %22 = getelementptr i8, ptr %21, i64 32
  %.val.i = load ptr, ptr %22, align 8, !tbaa !103
  %23 = shl nuw i32 1, %19
  %24 = and i32 %18, %23
  %.not.i = icmp ne i32 %24, 0
  %25 = sext i1 %.not.i to i32
  %26 = getelementptr inbounds nuw i8, ptr %.val.i, i64 32
  br label %27

27:                                               ; preds = %27, %.lr.ph.i
  %indvars.iv.i = phi i64 [ 0, %.lr.ph.i ], [ %indvars.iv.next.i, %27 ]
  %28 = getelementptr inbounds nuw [0 x i32], ptr %26, i64 0, i64 %indvars.iv.i
  store i32 %25, ptr %28, align 4, !tbaa !38
  %indvars.iv.next.i = add nuw nsw i64 %indvars.iv.i, 1
  %29 = load i32, ptr %8, align 8, !tbaa !96
  %30 = sext i32 %29 to i64
  %31 = icmp slt i64 %indvars.iv.next.i, %30
  br i1 %31, label %27, label %Ivy_NodeAssignConst.exit.loopexit, !llvm.loop !115

Ivy_NodeAssignConst.exit.loopexit:                ; preds = %27
  %.val.pre = load i32, ptr %6, align 4, !tbaa !47
  br label %Ivy_NodeAssignConst.exit

Ivy_NodeAssignConst.exit:                         ; preds = %Ivy_NodeAssignConst.exit.loopexit, %.lr.ph.split
  %.val = phi i32 [ %.val.pre, %Ivy_NodeAssignConst.exit.loopexit ], [ %.val36, %.lr.ph.split ]
  %32 = phi i32 [ %29, %Ivy_NodeAssignConst.exit.loopexit ], [ %12, %.lr.ph.split ]
  %indvars.iv.next = add nuw nsw i64 %indvars.iv, 1
  %33 = sext i32 %.val to i64
  %34 = icmp slt i64 %indvars.iv.next, %33
  br i1 %34, label %.lr.ph.split, label %.critedge, !llvm.loop !116

.critedge:                                        ; preds = %Ivy_NodeAssignConst.exit, %.lr.ph, %..critedge_crit_edge
  %35 = phi i32 [ %.pre, %..critedge_crit_edge ], [ %10, %.lr.ph ], [ %32, %Ivy_NodeAssignConst.exit ]
  %36 = getelementptr i8, ptr %4, i64 124
  %.val21 = load i32, ptr %36, align 4, !tbaa !38
  %37 = shl nsw i32 %35, 5
  %38 = add nsw i32 %37, -1
  %spec.select = tail call i32 @llvm.smin.i32(i32 %.val21, i32 %38)
  %39 = icmp sgt i32 %spec.select, 0
  br i1 %39, label %.lr.ph30, label %._crit_edge

.lr.ph30:                                         ; preds = %.critedge
  %40 = getelementptr i8, ptr %5, i64 8
  %.val23.val = load ptr, ptr %40, align 8, !tbaa !49
  %wide.trip.count = zext nneg i32 %spec.select to i64
  br label %41

41:                                               ; preds = %.lr.ph30, %41
  %indvars.iv33 = phi i64 [ 0, %.lr.ph30 ], [ %indvars.iv.next34, %41 ]
  %42 = getelementptr inbounds nuw ptr, ptr %.val23.val, i64 %indvars.iv33
  %43 = load ptr, ptr %42, align 8, !tbaa !51
  %44 = getelementptr i8, ptr %43, i64 32
  %.val22 = load ptr, ptr %44, align 8, !tbaa !103
  %45 = getelementptr inbounds nuw i8, ptr %.val22, i64 32
  %indvars.iv.next34 = add nuw nsw i64 %indvars.iv33, 1
  %46 = trunc nuw nsw i64 %indvars.iv.next34 to i32
  %47 = and i32 %46, 31
  %48 = shl nuw i32 1, %47
  %49 = lshr i64 %indvars.iv.next34, 5
  %50 = and i64 %49, 134217727
  %51 = getelementptr inbounds nuw i32, ptr %45, i64 %50
  %52 = load i32, ptr %51, align 4, !tbaa !38
  %53 = xor i32 %52, %48
  store i32 %53, ptr %51, align 4, !tbaa !38
  %exitcond.not = icmp eq i64 %indvars.iv.next34, %wide.trip.count
  br i1 %exitcond.not, label %._crit_edge, label %41, !llvm.loop !117

._crit_edge:                                      ; preds = %41, %.critedge
  ret void
}